target datalayout = "e-m:e-p270:32:32-p271:32:32-p272:64:64-i64:64-i128:128-f80:128-n8:16:32:64-S128"
target triple = "x86_64-pc-linux-gnu"

%"class.LIEF::PE::RelocationEntry" = type { %"class.LIEF::Relocation.base", i16, i32, ptr }
%"class.LIEF::Relocation.base" = type <{ %"class.LIEF::Object", i64, i8 }>
%"class.LIEF::Object" = type { ptr }
%"class.LIEF::PE::Relocation" = type { %"class.LIEF::Object", i32, i32, %"class.std::vector.38" }
%"class.std::vector.38" = type { %"struct.std::_Vector_base.39" }
%"struct.std::_Vector_base.39" = type { %"struct.std::_Vector_base<std::unique_ptr<LIEF::PE::RelocationEntry>, std::allocator<std::unique_ptr<LIEF::PE::RelocationEntry>>>::_Vector_impl" }
%"struct.std::_Vector_base<std::unique_ptr<LIEF::PE::RelocationEntry>, std::allocator<std::unique_ptr<LIEF::PE::RelocationEntry>>>::_Vector_impl" = type { %"struct.std::_Vector_base<std::unique_ptr<LIEF::PE::RelocationEntry>, std::allocator<std::unique_ptr<LIEF::PE::RelocationEntry>>>::_Vector_impl_data" }
%"struct.std::_Vector_base<std::unique_ptr<LIEF::PE::RelocationEntry>, std::allocator<std::unique_ptr<LIEF::PE::RelocationEntry>>>::_Vector_impl_data" = type { ptr, ptr, ptr }

; Function Attrs: mustprogress nounwind uwtable
define linkonce_odr hidden noundef zeroext i16 @_ZNK4LIEF2PE15RelocationEntry8positionEv(ptr noundef nonnull align 8 dereferenceable(32) %0) #1 comdat align 2 {
  %2 = alloca ptr, align 8
  store ptr %0, ptr %2, align 8, !tbaa !19
  %3 = load ptr, ptr %2, align 8
  %4 = getelementptr inbounds nuw %"class.LIEF::PE::RelocationEntry", ptr %3, i32 0, i32 1
  %5 = load i16, ptr %4, align 2, !tbaa !36
  ret i16 %5
}

; Function Attrs: mustprogress nounwind uwtable
define linkonce_odr hidden noundef i32 @_ZNK4LIEF2PE10Relocation15virtual_addressEv(ptr noundef nonnull align 8 dereferenceable(40) %0) #1 comdat align 2 {
  %2 = alloca ptr, align 8
  store ptr %0, ptr %2, align 8, !tbaa !27
  %3 = load ptr, ptr %2, align 8
  %4 = getelementptr inbounds nuw %"class.LIEF::PE::Relocation", ptr %3, i32 0, i32 2
  %5 = load i32, ptr %4, align 4, !tbaa !28
  ret i32 %5
}

; Function Attrs: mustprogress nounwind uwtable
define noundef i64 @_ZNK4LIEF2PE15RelocationEntry7addressEv(ptr noundef nonnull align 8 dereferenceable(32) %0) unnamed_addr #1 align 2 {
  %2 = alloca i64, align 8
  %3 = alloca ptr, align 8
  store ptr %0, ptr %3, align 8, !tbaa !19
  %4 = load ptr, ptr %3, align 8
  %5 = getelementptr inbounds nuw %"class.LIEF::PE::RelocationEntry", ptr %4, i32 0, i32 3
  %6 = load ptr, ptr %5, align 8, !tbaa !21
  %7 = icmp ne ptr %6, null
  br i1 %7, label %8, label %16

8:                                                ; preds = %1
  %9 = getelementptr inbounds nuw %"class.LIEF::PE::RelocationEntry", ptr %4, i32 0, i32 3
  %10 = load ptr, ptr %9, align 8, !tbaa !21
  %11 = call noundef i32 @_ZNK4LIEF2PE10Relocation15virtual_addressEv(ptr noundef nonnull align 8 dereferenceable(40) %10)
  %12 = call noundef zeroext i16 @_ZNK4LIEF2PE15RelocationEntry8positionEv(ptr noundef nonnull align 8 dereferenceable(32) %4)
  %13 = zext i16 %12 to i32
  %14 = add i32 %11, %13
  %15 = zext i32 %14 to i64
  store i64 %15, ptr %2, align 8
  br label %19

16:                                               ; preds = %1
  %17 = call noundef zeroext i16 @_ZNK4LIEF2PE15RelocationEntry8positionEv(ptr noundef nonnull align 8 dereferenceable(32) %4)
  %18 = zext i16 %17 to i64
  store i64 %18, ptr %2, align 8
  br label %19

19:                                               ; preds = %16, %8
  %20 = load i64, ptr %2, align 8
  ret i64 %20
}