; Function Attrs: mustprogress nofree norecurse nosync nounwind willreturn memory(read, inaccessiblemem: none) uwtable
define noundef range(i64 0, 4294967296) i64 @_ZNK4LIEF2PE15RelocationEntry7addressEv(ptr noundef nonnull readonly align 8 captures(none) dereferenceable(32) %0) unnamed_addr #2 align 2 {
  %2 = getelementptr inbounds nuw i8, ptr %0, i64 24
  %3 = load ptr, ptr %2, align 8, !tbaa !3
  %.not = icmp eq ptr %3, null
  br i1 %.not, label %12, label %4

4:                                                ; preds = %1
  %5 = getelementptr inbounds nuw i8, ptr %3, i64 12
  %6 = load i32, ptr %5, align 4, !tbaa !14
  %7 = getelementptr inbounds nuw i8, ptr %0, i64 18
  %8 = load i16, ptr %7, align 2, !tbaa !22
  %9 = zext i16 %8 to i32
  %10 = add i32 %6, %9
  %11 = zext i32 %10 to i64
  br label %16

12:                                               ; preds = %1
  %13 = getelementptr inbounds nuw i8, ptr %0, i64 18
  %14 = load i16, ptr %13, align 2, !tbaa !22
  %15 = zext i16 %14 to i64
  br label %16

16:                                               ; preds = %12, %4
  %.0 = phi i64 [ %11, %4 ], [ %15, %12 ]
  ret i64 %.0
}